; ModuleID = '22/402.c'
source_filename = "22/402.c"
target datalayout = "e-m:e-p270:32:32-p271:32:32-p272:64:64-i64:64-f80:128-n8:16:32:64-S128"
target triple = "x86_64-pc-linux-gnu"

@.str = private unnamed_addr constant [3 x i8] c"No\00", align 1
@.str.1 = private unnamed_addr constant [3 x i8] c"%d\00", align 1

; Function Attrs: noinline nounwind uwtable
define dso_local i32 @main() #0 {
  %1 = alloca i32, align 4
  %2 = alloca i32, align 4
  %3 = alloca [300 x i32], align 16
  %4 = alloca i32, align 4
  %5 = alloca i32, align 4
  %6 = alloca i32, align 4
  %7 = alloca i32, align 4
  %8 = alloca [1500 x i8], align 16
  store i32 0, i32* %1, align 4
  store i32 0, i32* %4, align 4
  %9 = getelementptr inbounds [1500 x i8], [1500 x i8]* %8, i64 0, i64 0
  %10 = call i32 (i8*, ...) bitcast (i32 (...)* @gets to i32 (i8*, ...)*)(i8* %9)
  %11 = getelementptr inbounds [1500 x i8], [1500 x i8]* %8, i64 0, i64 0
  %12 = call i64 @strlen(i8* %11) #3
  %13 = trunc i64 %12 to i32
  store i32 %13, i32* %6, align 4
  store i32 0, i32* %2, align 4
  br label %14

14:                                               ; preds = %59, %0
  %15 = load i32, i32* %2, align 4
  %16 = load i32, i32* %6, align 4
  %17 = sub nsw i32 %16, 1
  %18 = icmp sle i32 %15, %17
  br i1 %18, label %19, label %62

19:                                               ; preds = %14
  %20 = load i32, i32* %4, align 4
  %21 = sext i32 %20 to i64
  %22 = getelementptr inbounds [300 x i32], [300 x i32]* %3, i64 0, i64 %21
  store i32 0, i32* %22, align 4
  br label %23

23:                                               ; preds = %53, %19
  %24 = load i32, i32* %2, align 4
  %25 = load i32, i32* %6, align 4
  %26 = sub nsw i32 %25, 1
  %27 = icmp sle i32 %24, %26
  br i1 %27, label %28, label %56

28:                                               ; preds = %23
  %29 = load i32, i32* %2, align 4
  %30 = sext i32 %29 to i64
  %31 = getelementptr inbounds [1500 x i8], [1500 x i8]* %8, i64 0, i64 %30
  %32 = load i8, i8* %31, align 1
  %33 = sext i8 %32 to i32
  %34 = icmp eq i32 %33, 44
  br i1 %34, label %35, label %36

35:                                               ; preds = %28
  br label %56

36:                                               ; preds = %28
  %37 = load i32, i32* %2, align 4
  %38 = sext i32 %37 to i64
  %39 = getelementptr inbounds [1500 x i8], [1500 x i8]* %8, i64 0, i64 %38
  %40 = load i8, i8* %39, align 1
  %41 = sext i8 %40 to i32
  %42 = sub nsw i32 %41, 48
  %43 = load i32, i32* %4, align 4
  %44 = sext i32 %43 to i64
  %45 = getelementptr inbounds [300 x i32], [300 x i32]* %3, i64 0, i64 %44
  %46 = load i32, i32* %45, align 4
  %47 = mul nsw i32 %46, 10
  %48 = add nsw i32 %42, %47
  %49 = load i32, i32* %4, align 4
  %50 = sext i32 %49 to i64
  %51 = getelementptr inbounds [300 x i32], [300 x i32]* %3, i64 0, i64 %50
  store i32 %48, i32* %51, align 4
  br label %52

52:                                               ; preds = %36
  br label %53

53:                                               ; preds = %52
  %54 = load i32, i32* %2, align 4
  %55 = add nsw i32 %54, 1
  store i32 %55, i32* %2, align 4
  br label %23

56:                                               ; preds = %35, %23
  %57 = load i32, i32* %4, align 4
  %58 = add nsw i32 %57, 1
  store i32 %58, i32* %4, align 4
  br label %59

59:                                               ; preds = %56
  %60 = load i32, i32* %2, align 4
  %61 = add nsw i32 %60, 1
  store i32 %61, i32* %2, align 4
  br label %14

62:                                               ; preds = %14
  %63 = load i32, i32* %6, align 4
  %64 = icmp eq i32 %63, 1
  br i1 %64, label %65, label %67

65:                                               ; preds = %62
  %66 = call i32 (i8*, ...) @printf(i8* getelementptr inbounds ([3 x i8], [3 x i8]* @.str, i64 0, i64 0))
  br label %177

67:                                               ; preds = %62
  store i32 0, i32* %2, align 4
  br label %68

68:                                               ; preds = %86, %67
  %69 = load i32, i32* %2, align 4
  %70 = load i32, i32* %4, align 4
  %71 = sub nsw i32 %70, 2
  %72 = icmp sle i32 %69, %71
  br i1 %72, label %73, label %89

73:                                               ; preds = %68
  %74 = load i32, i32* %2, align 4
  %75 = sext i32 %74 to i64
  %76 = getelementptr inbounds [300 x i32], [300 x i32]* %3, i64 0, i64 %75
  %77 = load i32, i32* %76, align 4
  %78 = load i32, i32* %2, align 4
  %79 = add nsw i32 %78, 1
  %80 = sext i32 %79 to i64
  %81 = getelementptr inbounds [300 x i32], [300 x i32]* %3, i64 0, i64 %80
  %82 = load i32, i32* %81, align 4
  %83 = icmp ne i32 %77, %82
  br i1 %83, label %84, label %85

84:                                               ; preds = %73
  br label %89

85:                                               ; preds = %73
  br label %86

86:                                               ; preds = %85
  %87 = load i32, i32* %2, align 4
  %88 = add nsw i32 %87, 1
  store i32 %88, i32* %2, align 4
  br label %68

89:                                               ; preds = %84, %68
  %90 = load i32, i32* %2, align 4
  %91 = load i32, i32* %4, align 4
  %92 = sub nsw i32 %91, 1
  %93 = icmp eq i32 %90, %92
  br i1 %93, label %94, label %96

94:                                               ; preds = %89
  %95 = call i32 (i8*, ...) @printf(i8* getelementptr inbounds ([3 x i8], [3 x i8]* @.str, i64 0, i64 0))
  br label %176

96:                                               ; preds = %89
  store i32 0, i32* %2, align 4
  br label %97

97:                                               ; preds = %144, %96
  %98 = load i32, i32* %2, align 4
  %99 = load i32, i32* %4, align 4
  %100 = sub nsw i32 %99, 2
  %101 = icmp sle i32 %98, %100
  br i1 %101, label %102, label %147

102:                                              ; preds = %97
  store i32 0, i32* %7, align 4
  br label %103

103:                                              ; preds = %140, %102
  %104 = load i32, i32* %7, align 4
  %105 = load i32, i32* %4, align 4
  %106 = sub nsw i32 %105, 2
  %107 = load i32, i32* %2, align 4
  %108 = sub nsw i32 %106, %107
  %109 = icmp sle i32 %104, %108
  br i1 %109, label %110, label %143

110:                                              ; preds = %103
  %111 = load i32, i32* %7, align 4
  %112 = sext i32 %111 to i64
  %113 = getelementptr inbounds [300 x i32], [300 x i32]* %3, i64 0, i64 %112
  %114 = load i32, i32* %113, align 4
  %115 = load i32, i32* %7, align 4
  %116 = add nsw i32 %115, 1
  %117 = sext i32 %116 to i64
  %118 = getelementptr inbounds [300 x i32], [300 x i32]* %3, i64 0, i64 %117
  %119 = load i32, i32* %118, align 4
  %120 = icmp sle i32 %114, %119
  br i1 %120, label %121, label %139

121:                                              ; preds = %110
  %122 = load i32, i32* %7, align 4
  %123 = sext i32 %122 to i64
  %124 = getelementptr inbounds [300 x i32], [300 x i32]* %3, i64 0, i64 %123
  %125 = load i32, i32* %124, align 4
  store i32 %125, i32* %5, align 4
  %126 = load i32, i32* %7, align 4
  %127 = add nsw i32 %126, 1
  %128 = sext i32 %127 to i64
  %129 = getelementptr inbounds [300 x i32], [300 x i32]* %3, i64 0, i64 %128
  %130 = load i32, i32* %129, align 4
  %131 = load i32, i32* %7, align 4
  %132 = sext i32 %131 to i64
  %133 = getelementptr inbounds [300 x i32], [300 x i32]* %3, i64 0, i64 %132
  store i32 %130, i32* %133, align 4
  %134 = load i32, i32* %5, align 4
  %135 = load i32, i32* %7, align 4
  %136 = add nsw i32 %135, 1
  %137 = sext i32 %136 to i64
  %138 = getelementptr inbounds [300 x i32], [300 x i32]* %3, i64 0, i64 %137
  store i32 %134, i32* %138, align 4
  br label %139

139:                                              ; preds = %121, %110
  br label %140

140:                                              ; preds = %139
  %141 = load i32, i32* %7, align 4
  %142 = add nsw i32 %141, 1
  store i32 %142, i32* %7, align 4
  br label %103

143:                                              ; preds = %103
  br label %144

144:                                              ; preds = %143
  %145 = load i32, i32* %2, align 4
  %146 = add nsw i32 %145, 1
  store i32 %146, i32* %2, align 4
  br label %97

147:                                              ; preds = %97
  store i32 0, i32* %2, align 4
  br label %148

148:                                              ; preds = %172, %147
  %149 = load i32, i32* %2, align 4
  %150 = load i32, i32* %4, align 4
  %151 = sub nsw i32 %150, 2
  %152 = icmp sle i32 %149, %151
  br i1 %152, label %153, label %175

153:                                              ; preds = %148
  %154 = load i32, i32* %2, align 4
  %155 = sext i32 %154 to i64
  %156 = getelementptr inbounds [300 x i32], [300 x i32]* %3, i64 0, i64 %155
  %157 = load i32, i32* %156, align 4
  %158 = load i32, i32* %2, align 4
  %159 = add nsw i32 %158, 1
  %160 = sext i32 %159 to i64
  %161 = getelementptr inbounds [300 x i32], [300 x i32]* %3, i64 0, i64 %160
  %162 = load i32, i32* %161, align 4
  %163 = icmp ne i32 %157, %162
  br i1 %163, label %164, label %171

164:                                              ; preds = %153
  %165 = load i32, i32* %2, align 4
  %166 = add nsw i32 %165, 1
  %167 = sext i32 %166 to i64
  %168 = getelementptr inbounds [300 x i32], [300 x i32]* %3, i64 0, i64 %167
  %169 = load i32, i32* %168, align 4
  %170 = call i32 (i8*, ...) @printf(i8* getelementptr inbounds ([3 x i8], [3 x i8]* @.str.1, i64 0, i64 0), i32 %169)
  br label %175

171:                                              ; preds = %153
  br label %172

172:                                              ; preds = %171
  %173 = load i32, i32* %2, align 4
  %174 = add nsw i32 %173, 1
  store i32 %174, i32* %2, align 4
  br label %148

175:                                              ; preds = %164, %148
  br label %176

176:                                              ; preds = %175, %94
  br label %177

177:                                              ; preds = %176, %65
  %178 = load i32, i32* %1, align 4
  ret i32 %178
}

declare dso_local i32 @gets(...) #1

; Function Attrs: nounwind readonly
declare dso_local i64 @strlen(i8*) #2

declare dso_local i32 @printf(i8*, ...) #1


!llvm.module.flags = !{!0}
!llvm.ident = !{!1}

!0 = !{i32 1, !"wchar_size", i32 4}
!1 = !{!"clang version 10.0.0-4ubuntu1 "}
